target datalayout = "e-m:e-p270:32:32-p271:32:32-p272:64:64-i64:64-i128:128-f80:128-n8:16:32:64-S128"
target triple = "x86_64-pc-linux-gnu"

%"class.absl::lts_20240722::Status" = type { i64 }
%"union.absl::lts_20240722::internal_any_invocable::TypeErasedState" = type { %struct.anon }
%struct.anon = type { ptr, i64 }
%class.anon = type { %"class.absl::lts_20240722::AnyInvocable", %"class.absl::lts_20240722::Status", [8 x i8] }
%"class.absl::lts_20240722::AnyInvocable" = type { %"class.absl::lts_20240722::internal_any_invocable::Impl" }
%"class.absl::lts_20240722::internal_any_invocable::Impl" = type { %"class.absl::lts_20240722::internal_any_invocable::CoreImpl" }
%"class.absl::lts_20240722::internal_any_invocable::CoreImpl" = type { %"union.absl::lts_20240722::internal_any_invocable::TypeErasedState", ptr, ptr }

; Function Attrs: inlinehint mustprogress nounwind uwtable
define linkonce_odr noundef ptr @_ZN4absl12lts_202407226Status12RepToPointerEm(i64 noundef %0) #10 comdat align 2 {
  %2 = alloca i64, align 8
  store i64 %0, ptr %2, align 8, !tbaa !30
  %3 = load i64, ptr %2, align 8, !tbaa !30
  %4 = inttoptr i64 %3 to ptr
  ret ptr %4
}

; Function Attrs: mustprogress nounwind uwtable
define linkonce_odr noundef zeroext i1 @_ZN4absl12lts_202407226Status9IsInlinedEm(i64 noundef %0) #7 comdat align 2 {
  %2 = alloca i64, align 8
  store i64 %0, ptr %2, align 8, !tbaa !30
  %3 = load i64, ptr %2, align 8, !tbaa !30
  %4 = and i64 %3, 1
  %5 = icmp ne i64 %4, 0
  ret i1 %5
}

; Function Attrs: inlinehint mustprogress uwtable
define linkonce_odr void @_ZN4absl12lts_202407226Status5UnrefEm(i64 noundef %0) #12 comdat align 2 {
  %2 = alloca i64, align 8
  store i64 %0, ptr %2, align 8, !tbaa !30
  %3 = load i64, ptr %2, align 8, !tbaa !30
  %4 = call noundef zeroext i1 @_ZN4absl12lts_202407226Status9IsInlinedEm(i64 noundef %3)
  br i1 %4, label %8, label %5

5:                                                ; preds = %1
  %6 = load i64, ptr %2, align 8, !tbaa !30
  %7 = call noundef ptr @_ZN4absl12lts_202407226Status12RepToPointerEm(i64 noundef %6)
  call void @_ZNK4absl12lts_2024072215status_internal9StatusRep5UnrefEv(ptr noundef nonnull align 8 dereferenceable(48) %7)
  br label %8

8:                                                ; preds = %5, %1
  ret void
}

; Function Attrs: mustprogress nounwind uwtable
define linkonce_odr void @_ZN4absl12lts_2024072222internal_any_invocable8CoreImplILb0EvJNS0_8StatusOrISt6vectorIN17grpc_event_engine12experimental11EventEngine15ResolvedAddressESaIS8_EEEEEED2Ev(ptr noundef nonnull align 16 dereferenceable(32) %0) unnamed_addr #7 comdat align 2 {
  %2 = alloca ptr, align 8
  store ptr %0, ptr %2, align 8, !tbaa !184
  %3 = load ptr, ptr %2, align 8
  %4 = getelementptr inbounds nuw %"class.absl::lts_20240722::internal_any_invocable::CoreImpl", ptr %3, i32 0, i32 1
  %5 = load ptr, ptr %4, align 16, !tbaa !186
  %6 = getelementptr inbounds nuw %"class.absl::lts_20240722::internal_any_invocable::CoreImpl", ptr %3, i32 0, i32 0
  %7 = getelementptr inbounds nuw %"class.absl::lts_20240722::internal_any_invocable::CoreImpl", ptr %3, i32 0, i32 0
  call void %5(i1 noundef zeroext true, ptr noundef %6, ptr noundef %7) #3
  ret void
}

; Function Attrs: inlinehint mustprogress nounwind uwtable
define linkonce_odr void @_ZN4absl12lts_202407226StatusD2Ev(ptr noundef nonnull align 8 dereferenceable(8) %0) unnamed_addr #10 comdat align 2 personality ptr @__gxx_personality_v0 {
  %2 = alloca ptr, align 8
  store ptr %0, ptr %2, align 8, !tbaa !43
  %3 = load ptr, ptr %2, align 8
  %4 = getelementptr inbounds nuw %"class.absl::lts_20240722::Status", ptr %3, i32 0, i32 0
  %5 = load i64, ptr %4, align 8, !tbaa !45
  invoke void @_ZN4absl12lts_202407226Status5UnrefEm(i64 noundef %5)
          to label %6 unwind label %7

6:                                                ; preds = %1
  ret void

7:                                                ; preds = %1
  %8 = landingpad { ptr, i32 }
          catch ptr null
  %9 = extractvalue { ptr, i32 } %8, 0
  call void @__clang_call_terminate(ptr %9) #33
  unreachable
}

; Function Attrs: inlinehint mustprogress nounwind uwtable
define internal void @"_ZZN17grpc_event_engine12experimental12AresResolver14LookupHostnameEN4absl12lts_2024072212AnyInvocableIFvNS3_8StatusOrISt6vectorINS0_11EventEngine15ResolvedAddressESaIS8_EEEEEEESt17basic_string_viewIcSt11char_traitsIcEESH_EN3$_0D2Ev"(ptr noundef nonnull align 16 dereferenceable(40) %0) unnamed_addr #10 align 2 {
  %2 = alloca ptr, align 8
  store ptr %0, ptr %2, align 8, !tbaa !24
  %3 = load ptr, ptr %2, align 8
  %4 = getelementptr inbounds nuw %class.anon, ptr %3, i32 0, i32 1
  call void @_ZN4absl12lts_202407226StatusD2Ev(ptr noundef nonnull align 8 dereferenceable(8) %4) #3
  %5 = getelementptr inbounds nuw %class.anon, ptr %3, i32 0, i32 0
  call void @_ZN4absl12lts_2024072222internal_any_invocable8CoreImplILb0EvJNS0_8StatusOrISt6vectorIN17grpc_event_engine12experimental11EventEngine15ResolvedAddressESaIS8_EEEEEED2Ev(ptr noundef nonnull align 16 dereferenceable(32) %5) #3
  ret void
}

; Function Attrs: mustprogress nounwind uwtable
define internal void @"_ZN4absl12lts_2024072222internal_any_invocable23RemoteManagerNontrivialIZN17grpc_event_engine12experimental12AresResolver14LookupHostnameENS0_12AnyInvocableIFvNS0_8StatusOrISt6vectorINS4_11EventEngine15ResolvedAddressESaISA_EEEEEEESt17basic_string_viewIcSt11char_traitsIcEESJ_E3$_0EEvNS1_14FunctionToCallEPNS1_15TypeErasedStateESN_"(i1 noundef zeroext %0, ptr noundef %1, ptr noundef %2) #7 {
  %4 = alloca i8, align 1
  %5 = alloca ptr, align 8
  %6 = alloca ptr, align 8
  %7 = zext i1 %0 to i8
  store i8 %7, ptr %4, align 1, !tbaa !507
  store ptr %1, ptr %5, align 8, !tbaa !509
  store ptr %2, ptr %6, align 8, !tbaa !509
  %8 = load i8, ptr %4, align 1, !tbaa !507, !range !21, !noundef !22
  %9 = trunc i8 %8 to i1
  switch i1 %9, label %23 [
    i1 false, label %10
    i1 true, label %16
  ]

10:                                               ; preds = %3
  %11 = load ptr, ptr %5, align 8, !tbaa !509
  %12 = getelementptr inbounds nuw %struct.anon, ptr %11, i32 0, i32 0
  %13 = load ptr, ptr %12, align 16, !tbaa !133
  %14 = load ptr, ptr %6, align 8, !tbaa !509
  %15 = getelementptr inbounds nuw %struct.anon, ptr %14, i32 0, i32 0
  store ptr %13, ptr %15, align 16, !tbaa !133
  br label %26

16:                                               ; preds = %3
  %17 = load ptr, ptr %5, align 8, !tbaa !509
  %18 = getelementptr inbounds nuw %struct.anon, ptr %17, i32 0, i32 0
  %19 = load ptr, ptr %18, align 16, !tbaa !133
  %20 = icmp eq ptr %19, null
  br i1 %20, label %22, label %21

21:                                               ; preds = %16
  call void @"_ZZN17grpc_event_engine12experimental12AresResolver14LookupHostnameEN4absl12lts_2024072212AnyInvocableIFvNS3_8StatusOrISt6vectorINS0_11EventEngine15ResolvedAddressESaIS8_EEEEEEESt17basic_string_viewIcSt11char_traitsIcEESH_EN3$_0D2Ev"(ptr noundef nonnull align 16 dereferenceable(40) %19) #3
  call void @_ZdlPvm(ptr noundef %19, i64 noundef 48) #35
  br label %22

22:                                               ; preds = %21, %16
  br label %26

23:                                               ; preds = %3
  br label %24

24:                                               ; preds = %23
  unreachable

25:                                               ; No predecessors!
  br label %26

26:                                               ; preds = %10, %22, %25
  ret void
}